
ATMega1284_TRNG.elf:     file format elf32-avr

Sections:
Idx Name          Size      VMA       LMA       File off  Algn
  0 .data         00000046  00800100  00000ad6  00000b6a  2**0
                  CONTENTS, ALLOC, LOAD, DATA
  1 .text         00000ad6  00000000  00000000  00000094  2**1
                  CONTENTS, ALLOC, LOAD, READONLY, CODE
  2 .bss          000000af  00800146  00800146  00000bb0  2**0
                  ALLOC
  3 .comment      0000008c  00000000  00000000  00000bb0  2**0
                  CONTENTS, READONLY
  4 .note.gnu.avr.deviceinfo 00000040  00000000  00000000  00000c3c  2**2
                  CONTENTS, READONLY
  5 .debug_aranges 00000058  00000000  00000000  00000c7c  2**0
                  CONTENTS, READONLY, DEBUGGING
  6 .debug_info   00000708  00000000  00000000  00000cd4  2**0
                  CONTENTS, READONLY, DEBUGGING
  7 .debug_abbrev 00000325  00000000  00000000  000013dc  2**0
                  CONTENTS, READONLY, DEBUGGING
  8 .debug_line   000003eb  00000000  00000000  00001701  2**0
                  CONTENTS, READONLY, DEBUGGING
  9 .debug_frame  00000148  00000000  00000000  00001aec  2**2
                  CONTENTS, READONLY, DEBUGGING
 10 .debug_str    000002e5  00000000  00000000  00001c34  2**0
                  CONTENTS, READONLY, DEBUGGING
 11 .debug_loc    0000047b  00000000  00000000  00001f19  2**0
                  CONTENTS, READONLY, DEBUGGING
 12 .debug_ranges 00000038  00000000  00000000  00002394  2**0
                  CONTENTS, READONLY, DEBUGGING

Disassembly of section .text:

00000000 <__vectors>:
   0:	45 c0       	rjmp	.+138    	; 0x8c <__ctors_end>
   2:	00 00       	nop
   4:	60 c0       	rjmp	.+192    	; 0xc6 <__bad_interrupt>
   6:	00 00       	nop
   8:	5e c0       	rjmp	.+188    	; 0xc6 <__bad_interrupt>
   a:	00 00       	nop
   c:	5c c0       	rjmp	.+184    	; 0xc6 <__bad_interrupt>
   e:	00 00       	nop
  10:	5a c0       	rjmp	.+180    	; 0xc6 <__bad_interrupt>
  12:	00 00       	nop
  14:	58 c0       	rjmp	.+176    	; 0xc6 <__bad_interrupt>
  16:	00 00       	nop
  18:	56 c0       	rjmp	.+172    	; 0xc6 <__bad_interrupt>
  1a:	00 00       	nop
  1c:	54 c0       	rjmp	.+168    	; 0xc6 <__bad_interrupt>
  1e:	00 00       	nop
  20:	78 c0       	rjmp	.+240    	; 0x112 <__vector_8>
  22:	00 00       	nop
  24:	50 c0       	rjmp	.+160    	; 0xc6 <__bad_interrupt>
  26:	00 00       	nop
  28:	4e c0       	rjmp	.+156    	; 0xc6 <__bad_interrupt>
  2a:	00 00       	nop
  2c:	4c c0       	rjmp	.+152    	; 0xc6 <__bad_interrupt>
  2e:	00 00       	nop
  30:	4a c0       	rjmp	.+148    	; 0xc6 <__bad_interrupt>
  32:	00 00       	nop
  34:	48 c0       	rjmp	.+144    	; 0xc6 <__bad_interrupt>
  36:	00 00       	nop
  38:	46 c0       	rjmp	.+140    	; 0xc6 <__bad_interrupt>
  3a:	00 00       	nop
  3c:	44 c0       	rjmp	.+136    	; 0xc6 <__bad_interrupt>
  3e:	00 00       	nop
  40:	42 c0       	rjmp	.+132    	; 0xc6 <__bad_interrupt>
  42:	00 00       	nop
  44:	40 c0       	rjmp	.+128    	; 0xc6 <__bad_interrupt>
  46:	00 00       	nop
  48:	3e c0       	rjmp	.+124    	; 0xc6 <__bad_interrupt>
  4a:	00 00       	nop
  4c:	3c c0       	rjmp	.+120    	; 0xc6 <__bad_interrupt>
  4e:	00 00       	nop
  50:	3a c0       	rjmp	.+116    	; 0xc6 <__bad_interrupt>
  52:	00 00       	nop
  54:	38 c0       	rjmp	.+112    	; 0xc6 <__bad_interrupt>
  56:	00 00       	nop
  58:	36 c0       	rjmp	.+108    	; 0xc6 <__bad_interrupt>
  5a:	00 00       	nop
  5c:	34 c0       	rjmp	.+104    	; 0xc6 <__bad_interrupt>
  5e:	00 00       	nop
  60:	32 c0       	rjmp	.+100    	; 0xc6 <__bad_interrupt>
  62:	00 00       	nop
  64:	30 c0       	rjmp	.+96     	; 0xc6 <__bad_interrupt>
  66:	00 00       	nop
  68:	2e c0       	rjmp	.+92     	; 0xc6 <__bad_interrupt>
  6a:	00 00       	nop
  6c:	2c c0       	rjmp	.+88     	; 0xc6 <__bad_interrupt>
  6e:	00 00       	nop
  70:	2a c0       	rjmp	.+84     	; 0xc6 <__bad_interrupt>
  72:	00 00       	nop
  74:	28 c0       	rjmp	.+80     	; 0xc6 <__bad_interrupt>
  76:	00 00       	nop
  78:	26 c0       	rjmp	.+76     	; 0xc6 <__bad_interrupt>
  7a:	00 00       	nop
  7c:	24 c0       	rjmp	.+72     	; 0xc6 <__bad_interrupt>
  7e:	00 00       	nop
  80:	22 c0       	rjmp	.+68     	; 0xc6 <__bad_interrupt>
  82:	00 00       	nop
  84:	20 c0       	rjmp	.+64     	; 0xc6 <__bad_interrupt>
  86:	00 00       	nop
  88:	1e c0       	rjmp	.+60     	; 0xc6 <__bad_interrupt>
	...

0000008c <__ctors_end>:
  8c:	11 24       	eor	r1, r1
  8e:	1f be       	out	0x3f, r1	; 63
  90:	cf ef       	ldi	r28, 0xFF	; 255
  92:	d0 e4       	ldi	r29, 0x40	; 64
  94:	de bf       	out	0x3e, r29	; 62
  96:	cd bf       	out	0x3d, r28	; 61

00000098 <__do_copy_data>:
  98:	11 e0       	ldi	r17, 0x01	; 1
  9a:	a0 e0       	ldi	r26, 0x00	; 0
  9c:	b1 e0       	ldi	r27, 0x01	; 1
  9e:	e6 ed       	ldi	r30, 0xD6	; 214
  a0:	fa e0       	ldi	r31, 0x0A	; 10
  a2:	00 e0       	ldi	r16, 0x00	; 0
  a4:	0b bf       	out	0x3b, r16	; 59
  a6:	02 c0       	rjmp	.+4      	; 0xac <__do_copy_data+0x14>
  a8:	07 90       	elpm	r0, Z+
  aa:	0d 92       	st	X+, r0
  ac:	a6 34       	cpi	r26, 0x46	; 70
  ae:	b1 07       	cpc	r27, r17
  b0:	d9 f7       	brne	.-10     	; 0xa8 <__do_copy_data+0x10>

000000b2 <__do_clear_bss>:
  b2:	21 e0       	ldi	r18, 0x01	; 1
  b4:	a6 e4       	ldi	r26, 0x46	; 70
  b6:	b1 e0       	ldi	r27, 0x01	; 1
  b8:	01 c0       	rjmp	.+2      	; 0xbc <.do_clear_bss_start>

000000ba <.do_clear_bss_loop>:
  ba:	1d 92       	st	X+, r1

000000bc <.do_clear_bss_start>:
  bc:	a5 3f       	cpi	r26, 0xF5	; 245
  be:	b2 07       	cpc	r27, r18
  c0:	e1 f7       	brne	.-8      	; 0xba <.do_clear_bss_loop>
  c2:	02 d0       	rcall	.+4      	; 0xc8 <main>
  c4:	06 c5       	rjmp	.+2572   	; 0xad2 <_exit>

000000c6 <__bad_interrupt>:
  c6:	9c cf       	rjmp	.-200    	; 0x0 <__vectors>

000000c8 <main>:

int main(void) {
	/* Setup & Initialization */
	
	// Kick watchdog
	wdt_reset();
  c8:	a8 95       	wdr
	
	// Disable interrupts and watchdog on reset
	cli();
  ca:	f8 94       	cli
	WDTCSR |= (1<<WDCE)|(1<<WDE);
  cc:	e0 e6       	ldi	r30, 0x60	; 96
  ce:	f0 e0       	ldi	r31, 0x00	; 0
  d0:	80 81       	ld	r24, Z
  d2:	88 61       	ori	r24, 0x18	; 24
  d4:	80 83       	st	Z, r24
	WDTCSR = 0x00;
  d6:	10 82       	st	Z, r1
	
	// Setup watchdog timer to reset every 16ms and trigger interrupt
	WDTCSR |= (1<<WDCE)|(1<<WDE);
  d8:	80 81       	ld	r24, Z
  da:	88 61       	ori	r24, 0x18	; 24
  dc:	80 83       	st	Z, r24
	WDTCSR = (1<<WDIE);
  de:	80 e4       	ldi	r24, 0x40	; 64
  e0:	80 83       	st	Z, r24
	
	// Setup Timer 0
	TCCR0B |= (1<<CS00);
  e2:	85 b5       	in	r24, 0x25	; 37
  e4:	81 60       	ori	r24, 0x01	; 1
  e6:	85 bd       	out	0x25, r24	; 37
	
	// Initialize UART
	uart_init();
  e8:	c4 d0       	rcall	.+392    	; 0x272 <uart_init>
	stdout = stdin = stderr = &uart_str;
  ea:	ef ee       	ldi	r30, 0xEF	; 239
  ec:	f1 e0       	ldi	r31, 0x01	; 1
  ee:	80 e0       	ldi	r24, 0x00	; 0
  f0:	91 e0       	ldi	r25, 0x01	; 1
  f2:	95 83       	std	Z+5, r25	; 0x05
  f4:	84 83       	std	Z+4, r24	; 0x04
  f6:	91 83       	std	Z+1, r25	; 0x01
  f8:	80 83       	st	Z, r24
  fa:	93 83       	std	Z+3, r25	; 0x03
  fc:	82 83       	std	Z+2, r24	; 0x02
	
	// Tell the world we're ready
	fprintf(stdout, "Hello, world! Printing random numbers..\n\n");
  fe:	9c 01       	movw	r18, r24
 100:	49 e2       	ldi	r20, 0x29	; 41
 102:	50 e0       	ldi	r21, 0x00	; 0
 104:	61 e0       	ldi	r22, 0x01	; 1
 106:	70 e0       	ldi	r23, 0x00	; 0
 108:	8e e0       	ldi	r24, 0x0E	; 14
 10a:	91 e0       	ldi	r25, 0x01	; 1
 10c:	06 d2       	rcall	.+1036   	; 0x51a <fwrite>
	
	// Enable global interrupts
	sei();	
 10e:	78 94       	sei
	
	/* Loop */
	
    while (1) {
		
    }
 110:	ff cf       	rjmp	.-2      	; 0x110 <main+0x48>

00000112 <__vector_8>:



/*** INTERRUPT SERVICE ROUTINES ***/

ISR(WDT_vect) {
 112:	1f 92       	push	r1
 114:	0f 92       	push	r0
 116:	0f b6       	in	r0, 0x3f	; 63
 118:	0f 92       	push	r0
 11a:	11 24       	eor	r1, r1
 11c:	0b b6       	in	r0, 0x3b	; 59
 11e:	0f 92       	push	r0
 120:	ef 92       	push	r14
 122:	ff 92       	push	r15
 124:	0f 93       	push	r16
 126:	1f 93       	push	r17
 128:	2f 93       	push	r18
 12a:	3f 93       	push	r19
 12c:	4f 93       	push	r20
 12e:	5f 93       	push	r21
 130:	6f 93       	push	r22
 132:	7f 93       	push	r23
 134:	8f 93       	push	r24
 136:	9f 93       	push	r25
 138:	af 93       	push	r26
 13a:	bf 93       	push	r27
 13c:	cf 93       	push	r28
 13e:	df 93       	push	r29
 140:	ef 93       	push	r30
 142:	ff 93       	push	r31
	// 32-byte buffer used to hold clock bytes
	entropyBuffer[entropyBufferIndex] = TCNT0;
 144:	80 91 4a 01 	lds	r24, 0x014A	; 0x80014a <entropyBufferIndex>
 148:	96 b5       	in	r25, 0x26	; 38
 14a:	e8 2f       	mov	r30, r24
 14c:	f0 e0       	ldi	r31, 0x00	; 0
 14e:	e3 56       	subi	r30, 0x63	; 99
 150:	fe 4f       	sbci	r31, 0xFE	; 254
 152:	90 83       	st	Z, r25
	entropyBufferIndex++;
 154:	8f 5f       	subi	r24, 0xFF	; 255
 156:	80 93 4a 01 	sts	0x014A, r24	; 0x80014a <entropyBufferIndex>
	
	// When full, bytes fed into implementation of Jenkins'
	// one-at-a-time hash function. (recommended by Entropy
	// library)
	if(entropyBufferIndex >= 32) {
 15a:	80 32       	cpi	r24, 0x20	; 32
 15c:	08 f4       	brcc	.+2      	; 0x160 <__vector_8+0x4e>
 15e:	70 c0       	rjmp	.+224    	; 0x240 <__vector_8+0x12e>
 160:	ed e9       	ldi	r30, 0x9D	; 157
 162:	f1 e0       	ldi	r31, 0x01	; 1
 164:	cd eb       	ldi	r28, 0xBD	; 189
 166:	d1 e0       	ldi	r29, 0x01	; 1
 168:	80 e0       	ldi	r24, 0x00	; 0
 16a:	90 e0       	ldi	r25, 0x00	; 0
 16c:	dc 01       	movw	r26, r24
		randomNumber = 0;
		
		for(int i = 0; i < 32; i++) {
			randomNumber += entropyBuffer[i];
 16e:	21 91       	ld	r18, Z+
 170:	7c 01       	movw	r14, r24
 172:	8d 01       	movw	r16, r26
 174:	e2 0e       	add	r14, r18
 176:	f1 1c       	adc	r15, r1
 178:	01 1d       	adc	r16, r1
 17a:	11 1d       	adc	r17, r1
 17c:	a8 01       	movw	r20, r16
 17e:	97 01       	movw	r18, r14
			randomNumber += (randomNumber << 10);
 180:	a1 e0       	ldi	r26, 0x01	; 1
 182:	b4 e0       	ldi	r27, 0x04	; 4
 184:	a2 d1       	rcall	.+836    	; 0x4ca <__muluhisi3>
			randomNumber ^= (randomNumber >> 6);
 186:	8b 01       	movw	r16, r22
 188:	9c 01       	movw	r18, r24
 18a:	68 94       	set
 18c:	15 f8       	bld	r1, 5
 18e:	36 95       	lsr	r19
 190:	27 95       	ror	r18
 192:	17 95       	ror	r17
 194:	07 95       	ror	r16
 196:	16 94       	lsr	r1
 198:	d1 f7       	brne	.-12     	; 0x18e <__vector_8+0x7c>
 19a:	dc 01       	movw	r26, r24
 19c:	cb 01       	movw	r24, r22
 19e:	80 27       	eor	r24, r16
 1a0:	91 27       	eor	r25, r17
 1a2:	a2 27       	eor	r26, r18
 1a4:	b3 27       	eor	r27, r19
	// one-at-a-time hash function. (recommended by Entropy
	// library)
	if(entropyBufferIndex >= 32) {
		randomNumber = 0;
		
		for(int i = 0; i < 32; i++) {
 1a6:	ec 17       	cp	r30, r28
 1a8:	fd 07       	cpc	r31, r29
 1aa:	09 f7       	brne	.-62     	; 0x16e <__vector_8+0x5c>
			randomNumber += entropyBuffer[i];
			randomNumber += (randomNumber << 10);
			randomNumber ^= (randomNumber >> 6);
		}
		
		randomNumber += (randomNumber << 3);
 1ac:	ac 01       	movw	r20, r24
 1ae:	bd 01       	movw	r22, r26
 1b0:	44 0f       	add	r20, r20
 1b2:	55 1f       	adc	r21, r21
 1b4:	66 1f       	adc	r22, r22
 1b6:	77 1f       	adc	r23, r23
 1b8:	44 0f       	add	r20, r20
 1ba:	55 1f       	adc	r21, r21
 1bc:	66 1f       	adc	r22, r22
 1be:	77 1f       	adc	r23, r23
 1c0:	44 0f       	add	r20, r20
 1c2:	55 1f       	adc	r21, r21
 1c4:	66 1f       	adc	r22, r22
 1c6:	77 1f       	adc	r23, r23
 1c8:	84 0f       	add	r24, r20
 1ca:	95 1f       	adc	r25, r21
 1cc:	a6 1f       	adc	r26, r22
 1ce:	b7 1f       	adc	r27, r23
		randomNumber ^= (randomNumber >> 11);
 1d0:	ac 01       	movw	r20, r24
 1d2:	bd 01       	movw	r22, r26
 1d4:	03 2e       	mov	r0, r19
 1d6:	3b e0       	ldi	r19, 0x0B	; 11
 1d8:	76 95       	lsr	r23
 1da:	67 95       	ror	r22
 1dc:	57 95       	ror	r21
 1de:	47 95       	ror	r20
 1e0:	3a 95       	dec	r19
 1e2:	d1 f7       	brne	.-12     	; 0x1d8 <__vector_8+0xc6>
 1e4:	30 2d       	mov	r19, r0
 1e6:	9a 01       	movw	r18, r20
 1e8:	ab 01       	movw	r20, r22
 1ea:	28 27       	eor	r18, r24
 1ec:	39 27       	eor	r19, r25
 1ee:	4a 27       	eor	r20, r26
 1f0:	5b 27       	eor	r21, r27
		randomNumber += (randomNumber << 15);
 1f2:	a1 e0       	ldi	r26, 0x01	; 1
 1f4:	b0 e8       	ldi	r27, 0x80	; 128
 1f6:	69 d1       	rcall	.+722    	; 0x4ca <__muluhisi3>
 1f8:	60 93 46 01 	sts	0x0146, r22	; 0x800146 <__data_end>
 1fc:	70 93 47 01 	sts	0x0147, r23	; 0x800147 <__data_end+0x1>
 200:	80 93 48 01 	sts	0x0148, r24	; 0x800148 <__data_end+0x2>
 204:	90 93 49 01 	sts	0x0149, r25	; 0x800149 <__data_end+0x3>
		
		fprintf(stdout, "%X%X\n", (unsigned int)(randomNumber>>16), (unsigned int)randomNumber);
 208:	7f 93       	push	r23
 20a:	6f 93       	push	r22
 20c:	aa 27       	eor	r26, r26
 20e:	bb 27       	eor	r27, r27
 210:	9f 93       	push	r25
 212:	8f 93       	push	r24
 214:	88 e3       	ldi	r24, 0x38	; 56
 216:	91 e0       	ldi	r25, 0x01	; 1
 218:	9f 93       	push	r25
 21a:	8f 93       	push	r24
 21c:	ef ee       	ldi	r30, 0xEF	; 239
 21e:	f1 e0       	ldi	r31, 0x01	; 1
 220:	83 81       	ldd	r24, Z+3	; 0x03
 222:	8f 93       	push	r24
 224:	82 81       	ldd	r24, Z+2	; 0x02
 226:	8f 93       	push	r24
 228:	69 d1       	rcall	.+722    	; 0x4fc <fprintf>
		
		entropyBufferIndex = 0;
 22a:	10 92 4a 01 	sts	0x014A, r1	; 0x80014a <entropyBufferIndex>
 22e:	0d b7       	in	r16, 0x3d	; 61
 230:	1e b7       	in	r17, 0x3e	; 62
 232:	08 5f       	subi	r16, 0xF8	; 248
 234:	1f 4f       	sbci	r17, 0xFF	; 255
 236:	0f b6       	in	r0, 0x3f	; 63
 238:	f8 94       	cli
 23a:	1e bf       	out	0x3e, r17	; 62
 23c:	0f be       	out	0x3f, r0	; 63
 23e:	0d bf       	out	0x3d, r16	; 61
	}
}
 240:	ff 91       	pop	r31
 242:	ef 91       	pop	r30
 244:	df 91       	pop	r29
 246:	cf 91       	pop	r28
 248:	bf 91       	pop	r27
 24a:	af 91       	pop	r26
 24c:	9f 91       	pop	r25
 24e:	8f 91       	pop	r24
 250:	7f 91       	pop	r23
 252:	6f 91       	pop	r22
 254:	5f 91       	pop	r21
 256:	4f 91       	pop	r20
 258:	3f 91       	pop	r19
 25a:	2f 91       	pop	r18
 25c:	1f 91       	pop	r17
 25e:	0f 91       	pop	r16
 260:	ff 90       	pop	r15
 262:	ef 90       	pop	r14
 264:	0f 90       	pop	r0
 266:	0b be       	out	0x3b, r0	; 59
 268:	0f 90       	pop	r0
 26a:	0f be       	out	0x3f, r0	; 63
 26c:	0f 90       	pop	r0
 26e:	1f 90       	pop	r1
 270:	18 95       	reti

00000272 <uart_init>:
 272:	83 e3       	ldi	r24, 0x33	; 51
 274:	80 93 c4 00 	sts	0x00C4, r24	; 0x8000c4 <__TEXT_REGION_LENGTH__+0x7e00c4>
 278:	88 e1       	ldi	r24, 0x18	; 24
 27a:	80 93 c1 00 	sts	0x00C1, r24	; 0x8000c1 <__TEXT_REGION_LENGTH__+0x7e00c1>
 27e:	08 95       	ret

00000280 <uart_putchar>:
 280:	cf 93       	push	r28
 282:	c8 2f       	mov	r28, r24
 284:	87 30       	cpi	r24, 0x07	; 7
 286:	61 f4       	brne	.+24     	; 0x2a0 <uart_putchar+0x20>
 288:	20 91 f3 01 	lds	r18, 0x01F3	; 0x8001f3 <__iob+0x4>
 28c:	30 91 f4 01 	lds	r19, 0x01F4	; 0x8001f4 <__iob+0x5>
 290:	47 e0       	ldi	r20, 0x07	; 7
 292:	50 e0       	ldi	r21, 0x00	; 0
 294:	61 e0       	ldi	r22, 0x01	; 1
 296:	70 e0       	ldi	r23, 0x00	; 0
 298:	8e e3       	ldi	r24, 0x3E	; 62
 29a:	91 e0       	ldi	r25, 0x01	; 1
 29c:	3e d1       	rcall	.+636    	; 0x51a <fwrite>
 29e:	0b c0       	rjmp	.+22     	; 0x2b6 <uart_putchar+0x36>
 2a0:	8a 30       	cpi	r24, 0x0A	; 10
 2a2:	11 f4       	brne	.+4      	; 0x2a8 <uart_putchar+0x28>
 2a4:	8d e0       	ldi	r24, 0x0D	; 13
 2a6:	ec df       	rcall	.-40     	; 0x280 <uart_putchar>
 2a8:	e0 ec       	ldi	r30, 0xC0	; 192
 2aa:	f0 e0       	ldi	r31, 0x00	; 0
 2ac:	90 81       	ld	r25, Z
 2ae:	95 ff       	sbrs	r25, 5
 2b0:	fd cf       	rjmp	.-6      	; 0x2ac <uart_putchar+0x2c>
 2b2:	c0 93 c6 00 	sts	0x00C6, r28	; 0x8000c6 <__TEXT_REGION_LENGTH__+0x7e00c6>
 2b6:	80 e0       	ldi	r24, 0x00	; 0
 2b8:	90 e0       	ldi	r25, 0x00	; 0
 2ba:	cf 91       	pop	r28
 2bc:	08 95       	ret

000002be <uart_getchar>:
 2be:	6f 92       	push	r6
 2c0:	7f 92       	push	r7
 2c2:	8f 92       	push	r8
 2c4:	9f 92       	push	r9
 2c6:	af 92       	push	r10
 2c8:	bf 92       	push	r11
 2ca:	cf 92       	push	r12
 2cc:	df 92       	push	r13
 2ce:	ef 92       	push	r14
 2d0:	ff 92       	push	r15
 2d2:	0f 93       	push	r16
 2d4:	1f 93       	push	r17
 2d6:	cf 93       	push	r28
 2d8:	df 93       	push	r29
 2da:	20 91 9b 01 	lds	r18, 0x019B	; 0x80019b <rxp.1708>
 2de:	30 91 9c 01 	lds	r19, 0x019C	; 0x80019c <rxp.1708+0x1>
 2e2:	23 2b       	or	r18, r19
 2e4:	09 f0       	breq	.+2      	; 0x2e8 <uart_getchar+0x2a>
 2e6:	c7 c0       	rjmp	.+398    	; 0x476 <__FUSE_REGION_LENGTH__+0x76>
 2e8:	8c 01       	movw	r16, r24
 2ea:	0f 2e       	mov	r0, r31
 2ec:	fb e4       	ldi	r31, 0x4B	; 75
 2ee:	8f 2e       	mov	r8, r31
 2f0:	f1 e0       	ldi	r31, 0x01	; 1
 2f2:	9f 2e       	mov	r9, r31
 2f4:	f0 2d       	mov	r31, r0
 2f6:	c0 ec       	ldi	r28, 0xC0	; 192
 2f8:	d0 e0       	ldi	r29, 0x00	; 0
 2fa:	0f 2e       	mov	r0, r31
 2fc:	f6 ec       	ldi	r31, 0xC6	; 198
 2fe:	cf 2e       	mov	r12, r31
 300:	d1 2c       	mov	r13, r1
 302:	f0 2d       	mov	r31, r0
 304:	54 01       	movw	r10, r8
 306:	0f 2e       	mov	r0, r31
 308:	fa e4       	ldi	r31, 0x4A	; 74
 30a:	6f 2e       	mov	r6, r31
 30c:	f1 e0       	ldi	r31, 0x01	; 1
 30e:	7f 2e       	mov	r7, r31
 310:	f0 2d       	mov	r31, r0
 312:	88 81       	ld	r24, Y
 314:	88 23       	and	r24, r24
 316:	ec f7       	brge	.-6      	; 0x312 <uart_getchar+0x54>
 318:	88 81       	ld	r24, Y
 31a:	84 fd       	sbrc	r24, 4
 31c:	bf c0       	rjmp	.+382    	; 0x49c <__FUSE_REGION_LENGTH__+0x9c>
 31e:	88 81       	ld	r24, Y
 320:	83 fd       	sbrc	r24, 3
 322:	bf c0       	rjmp	.+382    	; 0x4a2 <__FUSE_REGION_LENGTH__+0xa2>
 324:	f6 01       	movw	r30, r12
 326:	80 81       	ld	r24, Z
 328:	8d 30       	cpi	r24, 0x0D	; 13
 32a:	11 f0       	breq	.+4      	; 0x330 <uart_getchar+0x72>
 32c:	8a 30       	cpi	r24, 0x0A	; 10
 32e:	61 f4       	brne	.+24     	; 0x348 <uart_getchar+0x8a>
 330:	8a e0       	ldi	r24, 0x0A	; 10
 332:	f4 01       	movw	r30, r8
 334:	80 83       	st	Z, r24
 336:	b8 01       	movw	r22, r16
 338:	a3 df       	rcall	.-186    	; 0x280 <uart_putchar>
 33a:	8b e4       	ldi	r24, 0x4B	; 75
 33c:	91 e0       	ldi	r25, 0x01	; 1
 33e:	90 93 9c 01 	sts	0x019C, r25	; 0x80019c <rxp.1708+0x1>
 342:	80 93 9b 01 	sts	0x019B, r24	; 0x80019b <rxp.1708>
 346:	97 c0       	rjmp	.+302    	; 0x476 <__FUSE_REGION_LENGTH__+0x76>
 348:	89 30       	cpi	r24, 0x09	; 9
 34a:	39 f0       	breq	.+14     	; 0x35a <uart_getchar+0x9c>
 34c:	90 ee       	ldi	r25, 0xE0	; 224
 34e:	98 0f       	add	r25, r24
 350:	9f 35       	cpi	r25, 0x5F	; 95
 352:	20 f0       	brcs	.+8      	; 0x35c <uart_getchar+0x9e>
 354:	80 3a       	cpi	r24, 0xA0	; 160
 356:	a8 f0       	brcs	.+42     	; 0x382 <uart_getchar+0xc4>
 358:	01 c0       	rjmp	.+2      	; 0x35c <uart_getchar+0x9e>
 35a:	80 e2       	ldi	r24, 0x20	; 32
 35c:	fa e9       	ldi	r31, 0x9A	; 154
 35e:	8f 16       	cp	r8, r31
 360:	f1 e0       	ldi	r31, 0x01	; 1
 362:	9f 06       	cpc	r9, r31
 364:	21 f4       	brne	.+8      	; 0x36e <uart_getchar+0xb0>
 366:	b8 01       	movw	r22, r16
 368:	87 e0       	ldi	r24, 0x07	; 7
 36a:	8a df       	rcall	.-236    	; 0x280 <uart_putchar>
 36c:	d2 cf       	rjmp	.-92     	; 0x312 <uart_getchar+0x54>
 36e:	74 01       	movw	r14, r8
 370:	9f ef       	ldi	r25, 0xFF	; 255
 372:	e9 1a       	sub	r14, r25
 374:	f9 0a       	sbc	r15, r25
 376:	f4 01       	movw	r30, r8
 378:	80 83       	st	Z, r24
 37a:	b8 01       	movw	r22, r16
 37c:	81 df       	rcall	.-254    	; 0x280 <uart_putchar>
 37e:	47 01       	movw	r8, r14
 380:	c8 cf       	rjmp	.-112    	; 0x312 <uart_getchar+0x54>
 382:	82 31       	cpi	r24, 0x12	; 18
 384:	b9 f1       	breq	.+110    	; 0x3f4 <uart_getchar+0x136>
 386:	30 f4       	brcc	.+12     	; 0x394 <uart_getchar+0xd6>
 388:	83 30       	cpi	r24, 0x03	; 3
 38a:	09 f4       	brne	.+2      	; 0x38e <uart_getchar+0xd0>
 38c:	8d c0       	rjmp	.+282    	; 0x4a8 <__FUSE_REGION_LENGTH__+0xa8>
 38e:	88 30       	cpi	r24, 0x08	; 8
 390:	e9 f0       	breq	.+58     	; 0x3cc <uart_getchar+0x10e>
 392:	bf cf       	rjmp	.-130    	; 0x312 <uart_getchar+0x54>
 394:	87 31       	cpi	r24, 0x17	; 23
 396:	29 f0       	breq	.+10     	; 0x3a2 <uart_getchar+0xe4>
 398:	8f 37       	cpi	r24, 0x7F	; 127
 39a:	c1 f0       	breq	.+48     	; 0x3cc <uart_getchar+0x10e>
 39c:	85 31       	cpi	r24, 0x15	; 21
 39e:	79 f0       	breq	.+30     	; 0x3be <uart_getchar+0x100>
 3a0:	b8 cf       	rjmp	.-144    	; 0x312 <uart_getchar+0x54>
 3a2:	fb e4       	ldi	r31, 0x4B	; 75
 3a4:	8f 16       	cp	r8, r31
 3a6:	f1 e0       	ldi	r31, 0x01	; 1
 3a8:	9f 06       	cpc	r9, r31
 3aa:	09 f0       	breq	.+2      	; 0x3ae <uart_getchar+0xf0>
 3ac:	08 f4       	brcc	.+2      	; 0x3b0 <uart_getchar+0xf2>
 3ae:	b1 cf       	rjmp	.-158    	; 0x312 <uart_getchar+0x54>
 3b0:	f4 01       	movw	r30, r8
 3b2:	31 97       	sbiw	r30, 0x01	; 1
 3b4:	80 81       	ld	r24, Z
 3b6:	80 32       	cpi	r24, 0x20	; 32
 3b8:	09 f0       	breq	.+2      	; 0x3bc <uart_getchar+0xfe>
 3ba:	45 c0       	rjmp	.+138    	; 0x446 <__FUSE_REGION_LENGTH__+0x46>
 3bc:	aa cf       	rjmp	.-172    	; 0x312 <uart_getchar+0x54>
 3be:	8b e4       	ldi	r24, 0x4B	; 75
 3c0:	88 16       	cp	r8, r24
 3c2:	81 e0       	ldi	r24, 0x01	; 1
 3c4:	98 06       	cpc	r9, r24
 3c6:	09 f0       	breq	.+2      	; 0x3ca <uart_getchar+0x10c>
 3c8:	48 f5       	brcc	.+82     	; 0x41c <__FUSE_REGION_LENGTH__+0x1c>
 3ca:	a3 cf       	rjmp	.-186    	; 0x312 <uart_getchar+0x54>
 3cc:	9b e4       	ldi	r25, 0x4B	; 75
 3ce:	89 16       	cp	r8, r25
 3d0:	91 e0       	ldi	r25, 0x01	; 1
 3d2:	99 06       	cpc	r9, r25
 3d4:	09 f0       	breq	.+2      	; 0x3d8 <uart_getchar+0x11a>
 3d6:	08 f4       	brcc	.+2      	; 0x3da <uart_getchar+0x11c>
 3d8:	9c cf       	rjmp	.-200    	; 0x312 <uart_getchar+0x54>
 3da:	b8 01       	movw	r22, r16
 3dc:	88 e0       	ldi	r24, 0x08	; 8
 3de:	50 df       	rcall	.-352    	; 0x280 <uart_putchar>
 3e0:	b8 01       	movw	r22, r16
 3e2:	80 e2       	ldi	r24, 0x20	; 32
 3e4:	4d df       	rcall	.-358    	; 0x280 <uart_putchar>
 3e6:	b8 01       	movw	r22, r16
 3e8:	88 e0       	ldi	r24, 0x08	; 8
 3ea:	4a df       	rcall	.-364    	; 0x280 <uart_putchar>
 3ec:	e1 e0       	ldi	r30, 0x01	; 1
 3ee:	8e 1a       	sub	r8, r30
 3f0:	91 08       	sbc	r9, r1
 3f2:	8f cf       	rjmp	.-226    	; 0x312 <uart_getchar+0x54>
 3f4:	b8 01       	movw	r22, r16
 3f6:	8d e0       	ldi	r24, 0x0D	; 13
 3f8:	43 df       	rcall	.-378    	; 0x280 <uart_putchar>
 3fa:	fb e4       	ldi	r31, 0x4B	; 75
 3fc:	8f 16       	cp	r8, r31
 3fe:	f1 e0       	ldi	r31, 0x01	; 1
 400:	9f 06       	cpc	r9, r31
 402:	09 f0       	breq	.+2      	; 0x406 <__FUSE_REGION_LENGTH__+0x6>
 404:	08 f4       	brcc	.+2      	; 0x408 <__FUSE_REGION_LENGTH__+0x8>
 406:	85 cf       	rjmp	.-246    	; 0x312 <uart_getchar+0x54>
 408:	75 01       	movw	r14, r10
 40a:	b8 01       	movw	r22, r16
 40c:	f7 01       	movw	r30, r14
 40e:	81 91       	ld	r24, Z+
 410:	7f 01       	movw	r14, r30
 412:	36 df       	rcall	.-404    	; 0x280 <uart_putchar>
 414:	e8 14       	cp	r14, r8
 416:	f9 04       	cpc	r15, r9
 418:	c1 f7       	brne	.-16     	; 0x40a <__FUSE_REGION_LENGTH__+0xa>
 41a:	7b cf       	rjmp	.-266    	; 0x312 <uart_getchar+0x54>
 41c:	b8 01       	movw	r22, r16
 41e:	88 e0       	ldi	r24, 0x08	; 8
 420:	2f df       	rcall	.-418    	; 0x280 <uart_putchar>
 422:	b8 01       	movw	r22, r16
 424:	80 e2       	ldi	r24, 0x20	; 32
 426:	2c df       	rcall	.-424    	; 0x280 <uart_putchar>
 428:	b8 01       	movw	r22, r16
 42a:	88 e0       	ldi	r24, 0x08	; 8
 42c:	29 df       	rcall	.-430    	; 0x280 <uart_putchar>
 42e:	f1 e0       	ldi	r31, 0x01	; 1
 430:	8f 1a       	sub	r8, r31
 432:	91 08       	sbc	r9, r1
 434:	8b e4       	ldi	r24, 0x4B	; 75
 436:	88 16       	cp	r8, r24
 438:	81 e0       	ldi	r24, 0x01	; 1
 43a:	98 06       	cpc	r9, r24
 43c:	79 f7       	brne	.-34     	; 0x41c <__FUSE_REGION_LENGTH__+0x1c>
 43e:	f3 01       	movw	r30, r6
 440:	31 96       	adiw	r30, 0x01	; 1
 442:	4f 01       	movw	r8, r30
 444:	66 cf       	rjmp	.-308    	; 0x312 <uart_getchar+0x54>
 446:	74 01       	movw	r14, r8
 448:	f1 e0       	ldi	r31, 0x01	; 1
 44a:	ef 1a       	sub	r14, r31
 44c:	f1 08       	sbc	r15, r1
 44e:	b8 01       	movw	r22, r16
 450:	88 e0       	ldi	r24, 0x08	; 8
 452:	16 df       	rcall	.-468    	; 0x280 <uart_putchar>
 454:	b8 01       	movw	r22, r16
 456:	80 e2       	ldi	r24, 0x20	; 32
 458:	13 df       	rcall	.-474    	; 0x280 <uart_putchar>
 45a:	b8 01       	movw	r22, r16
 45c:	88 e0       	ldi	r24, 0x08	; 8
 45e:	10 df       	rcall	.-480    	; 0x280 <uart_putchar>
 460:	47 01       	movw	r8, r14
 462:	ea 14       	cp	r14, r10
 464:	fb 04       	cpc	r15, r11
 466:	09 f4       	brne	.+2      	; 0x46a <__FUSE_REGION_LENGTH__+0x6a>
 468:	54 cf       	rjmp	.-344    	; 0x312 <uart_getchar+0x54>
 46a:	f7 01       	movw	r30, r14
 46c:	82 91       	ld	r24, -Z
 46e:	7f 01       	movw	r14, r30
 470:	80 32       	cpi	r24, 0x20	; 32
 472:	69 f7       	brne	.-38     	; 0x44e <__FUSE_REGION_LENGTH__+0x4e>
 474:	4e cf       	rjmp	.-356    	; 0x312 <uart_getchar+0x54>
 476:	e0 91 9b 01 	lds	r30, 0x019B	; 0x80019b <rxp.1708>
 47a:	f0 91 9c 01 	lds	r31, 0x019C	; 0x80019c <rxp.1708+0x1>
 47e:	cf 01       	movw	r24, r30
 480:	01 96       	adiw	r24, 0x01	; 1
 482:	90 93 9c 01 	sts	0x019C, r25	; 0x80019c <rxp.1708+0x1>
 486:	80 93 9b 01 	sts	0x019B, r24	; 0x80019b <rxp.1708>
 48a:	80 81       	ld	r24, Z
 48c:	8a 30       	cpi	r24, 0x0A	; 10
 48e:	21 f4       	brne	.+8      	; 0x498 <__FUSE_REGION_LENGTH__+0x98>
 490:	10 92 9c 01 	sts	0x019C, r1	; 0x80019c <rxp.1708+0x1>
 494:	10 92 9b 01 	sts	0x019B, r1	; 0x80019b <rxp.1708>
 498:	90 e0       	ldi	r25, 0x00	; 0
 49a:	08 c0       	rjmp	.+16     	; 0x4ac <__FUSE_REGION_LENGTH__+0xac>
 49c:	8e ef       	ldi	r24, 0xFE	; 254
 49e:	9f ef       	ldi	r25, 0xFF	; 255
 4a0:	05 c0       	rjmp	.+10     	; 0x4ac <__FUSE_REGION_LENGTH__+0xac>
 4a2:	8f ef       	ldi	r24, 0xFF	; 255
 4a4:	9f ef       	ldi	r25, 0xFF	; 255
 4a6:	02 c0       	rjmp	.+4      	; 0x4ac <__FUSE_REGION_LENGTH__+0xac>
 4a8:	8f ef       	ldi	r24, 0xFF	; 255
 4aa:	9f ef       	ldi	r25, 0xFF	; 255
 4ac:	df 91       	pop	r29
 4ae:	cf 91       	pop	r28
 4b0:	1f 91       	pop	r17
 4b2:	0f 91       	pop	r16
 4b4:	ff 90       	pop	r15
 4b6:	ef 90       	pop	r14
 4b8:	df 90       	pop	r13
 4ba:	cf 90       	pop	r12
 4bc:	bf 90       	pop	r11
 4be:	af 90       	pop	r10
 4c0:	9f 90       	pop	r9
 4c2:	8f 90       	pop	r8
 4c4:	7f 90       	pop	r7
 4c6:	6f 90       	pop	r6
 4c8:	08 95       	ret

000004ca <__muluhisi3>:
 4ca:	09 d0       	rcall	.+18     	; 0x4de <__umulhisi3>
 4cc:	a5 9f       	mul	r26, r21
 4ce:	90 0d       	add	r25, r0
 4d0:	b4 9f       	mul	r27, r20
 4d2:	90 0d       	add	r25, r0
 4d4:	a4 9f       	mul	r26, r20
 4d6:	80 0d       	add	r24, r0
 4d8:	91 1d       	adc	r25, r1
 4da:	11 24       	eor	r1, r1
 4dc:	08 95       	ret

000004de <__umulhisi3>:
 4de:	a2 9f       	mul	r26, r18
 4e0:	b0 01       	movw	r22, r0
 4e2:	b3 9f       	mul	r27, r19
 4e4:	c0 01       	movw	r24, r0
 4e6:	a3 9f       	mul	r26, r19
 4e8:	70 0d       	add	r23, r0
 4ea:	81 1d       	adc	r24, r1
 4ec:	11 24       	eor	r1, r1
 4ee:	91 1d       	adc	r25, r1
 4f0:	b2 9f       	mul	r27, r18
 4f2:	70 0d       	add	r23, r0
 4f4:	81 1d       	adc	r24, r1
 4f6:	11 24       	eor	r1, r1
 4f8:	91 1d       	adc	r25, r1
 4fa:	08 95       	ret

000004fc <fprintf>:
 4fc:	cf 93       	push	r28
 4fe:	df 93       	push	r29
 500:	cd b7       	in	r28, 0x3d	; 61
 502:	de b7       	in	r29, 0x3e	; 62
 504:	ae 01       	movw	r20, r28
 506:	47 5f       	subi	r20, 0xF7	; 247
 508:	5f 4f       	sbci	r21, 0xFF	; 255
 50a:	6f 81       	ldd	r22, Y+7	; 0x07
 50c:	78 85       	ldd	r23, Y+8	; 0x08
 50e:	8d 81       	ldd	r24, Y+5	; 0x05
 510:	9e 81       	ldd	r25, Y+6	; 0x06
 512:	45 d0       	rcall	.+138    	; 0x59e <vfprintf>
 514:	df 91       	pop	r29
 516:	cf 91       	pop	r28
 518:	08 95       	ret

0000051a <fwrite>:
 51a:	8f 92       	push	r8
 51c:	9f 92       	push	r9
 51e:	af 92       	push	r10
 520:	bf 92       	push	r11
 522:	cf 92       	push	r12
 524:	df 92       	push	r13
 526:	ef 92       	push	r14
 528:	ff 92       	push	r15
 52a:	0f 93       	push	r16
 52c:	1f 93       	push	r17
 52e:	cf 93       	push	r28
 530:	df 93       	push	r29
 532:	5b 01       	movw	r10, r22
 534:	4a 01       	movw	r8, r20
 536:	79 01       	movw	r14, r18
 538:	d9 01       	movw	r26, r18
 53a:	13 96       	adiw	r26, 0x03	; 3
 53c:	2c 91       	ld	r18, X
 53e:	21 ff       	sbrs	r18, 1
 540:	1d c0       	rjmp	.+58     	; 0x57c <fwrite+0x62>
 542:	c0 e0       	ldi	r28, 0x00	; 0
 544:	d0 e0       	ldi	r29, 0x00	; 0
 546:	c8 15       	cp	r28, r8
 548:	d9 05       	cpc	r29, r9
 54a:	d9 f0       	breq	.+54     	; 0x582 <fwrite+0x68>
 54c:	8c 01       	movw	r16, r24
 54e:	6c 01       	movw	r12, r24
 550:	ca 0c       	add	r12, r10
 552:	db 1c       	adc	r13, r11
 554:	c8 01       	movw	r24, r16
 556:	0c 15       	cp	r16, r12
 558:	1d 05       	cpc	r17, r13
 55a:	71 f0       	breq	.+28     	; 0x578 <fwrite+0x5e>
 55c:	0f 5f       	subi	r16, 0xFF	; 255
 55e:	1f 4f       	sbci	r17, 0xFF	; 255
 560:	d7 01       	movw	r26, r14
 562:	18 96       	adiw	r26, 0x08	; 8
 564:	ed 91       	ld	r30, X+
 566:	fc 91       	ld	r31, X
 568:	19 97       	sbiw	r26, 0x09	; 9
 56a:	b7 01       	movw	r22, r14
 56c:	dc 01       	movw	r26, r24
 56e:	8c 91       	ld	r24, X
 570:	09 95       	icall
 572:	89 2b       	or	r24, r25
 574:	79 f3       	breq	.-34     	; 0x554 <fwrite+0x3a>
 576:	05 c0       	rjmp	.+10     	; 0x582 <fwrite+0x68>
 578:	21 96       	adiw	r28, 0x01	; 1
 57a:	e5 cf       	rjmp	.-54     	; 0x546 <fwrite+0x2c>
 57c:	80 e0       	ldi	r24, 0x00	; 0
 57e:	90 e0       	ldi	r25, 0x00	; 0
 580:	01 c0       	rjmp	.+2      	; 0x584 <fwrite+0x6a>
 582:	ce 01       	movw	r24, r28
 584:	df 91       	pop	r29
 586:	cf 91       	pop	r28
 588:	1f 91       	pop	r17
 58a:	0f 91       	pop	r16
 58c:	ff 90       	pop	r15
 58e:	ef 90       	pop	r14
 590:	df 90       	pop	r13
 592:	cf 90       	pop	r12
 594:	bf 90       	pop	r11
 596:	af 90       	pop	r10
 598:	9f 90       	pop	r9
 59a:	8f 90       	pop	r8
 59c:	08 95       	ret

0000059e <vfprintf>:
 59e:	2f 92       	push	r2
 5a0:	3f 92       	push	r3
 5a2:	4f 92       	push	r4
 5a4:	5f 92       	push	r5
 5a6:	6f 92       	push	r6
 5a8:	7f 92       	push	r7
 5aa:	8f 92       	push	r8
 5ac:	9f 92       	push	r9
 5ae:	af 92       	push	r10
 5b0:	bf 92       	push	r11
 5b2:	cf 92       	push	r12
 5b4:	df 92       	push	r13
 5b6:	ef 92       	push	r14
 5b8:	ff 92       	push	r15
 5ba:	0f 93       	push	r16
 5bc:	1f 93       	push	r17
 5be:	cf 93       	push	r28
 5c0:	df 93       	push	r29
 5c2:	cd b7       	in	r28, 0x3d	; 61
 5c4:	de b7       	in	r29, 0x3e	; 62
 5c6:	2c 97       	sbiw	r28, 0x0c	; 12
 5c8:	0f b6       	in	r0, 0x3f	; 63
 5ca:	f8 94       	cli
 5cc:	de bf       	out	0x3e, r29	; 62
 5ce:	0f be       	out	0x3f, r0	; 63
 5d0:	cd bf       	out	0x3d, r28	; 61
 5d2:	7c 01       	movw	r14, r24
 5d4:	6b 01       	movw	r12, r22
 5d6:	8a 01       	movw	r16, r20
 5d8:	fc 01       	movw	r30, r24
 5da:	17 82       	std	Z+7, r1	; 0x07
 5dc:	16 82       	std	Z+6, r1	; 0x06
 5de:	83 81       	ldd	r24, Z+3	; 0x03
 5e0:	81 ff       	sbrs	r24, 1
 5e2:	b0 c1       	rjmp	.+864    	; 0x944 <vfprintf+0x3a6>
 5e4:	ce 01       	movw	r24, r28
 5e6:	01 96       	adiw	r24, 0x01	; 1
 5e8:	4c 01       	movw	r8, r24
 5ea:	f7 01       	movw	r30, r14
 5ec:	93 81       	ldd	r25, Z+3	; 0x03
 5ee:	f6 01       	movw	r30, r12
 5f0:	93 fd       	sbrc	r25, 3
 5f2:	85 91       	lpm	r24, Z+
 5f4:	93 ff       	sbrs	r25, 3
 5f6:	81 91       	ld	r24, Z+
 5f8:	6f 01       	movw	r12, r30
 5fa:	88 23       	and	r24, r24
 5fc:	09 f4       	brne	.+2      	; 0x600 <vfprintf+0x62>
 5fe:	9e c1       	rjmp	.+828    	; 0x93c <vfprintf+0x39e>
 600:	85 32       	cpi	r24, 0x25	; 37
 602:	39 f4       	brne	.+14     	; 0x612 <vfprintf+0x74>
 604:	93 fd       	sbrc	r25, 3
 606:	85 91       	lpm	r24, Z+
 608:	93 ff       	sbrs	r25, 3
 60a:	81 91       	ld	r24, Z+
 60c:	6f 01       	movw	r12, r30
 60e:	85 32       	cpi	r24, 0x25	; 37
 610:	21 f4       	brne	.+8      	; 0x61a <vfprintf+0x7c>
 612:	b7 01       	movw	r22, r14
 614:	90 e0       	ldi	r25, 0x00	; 0
 616:	c7 d1       	rcall	.+910    	; 0x9a6 <fputc>
 618:	e8 cf       	rjmp	.-48     	; 0x5ea <vfprintf+0x4c>
 61a:	51 2c       	mov	r5, r1
 61c:	31 2c       	mov	r3, r1
 61e:	20 e0       	ldi	r18, 0x00	; 0
 620:	20 32       	cpi	r18, 0x20	; 32
 622:	a0 f4       	brcc	.+40     	; 0x64c <vfprintf+0xae>
 624:	8b 32       	cpi	r24, 0x2B	; 43
 626:	69 f0       	breq	.+26     	; 0x642 <vfprintf+0xa4>
 628:	30 f4       	brcc	.+12     	; 0x636 <vfprintf+0x98>
 62a:	80 32       	cpi	r24, 0x20	; 32
 62c:	59 f0       	breq	.+22     	; 0x644 <vfprintf+0xa6>
 62e:	83 32       	cpi	r24, 0x23	; 35
 630:	69 f4       	brne	.+26     	; 0x64c <vfprintf+0xae>
 632:	20 61       	ori	r18, 0x10	; 16
 634:	2c c0       	rjmp	.+88     	; 0x68e <vfprintf+0xf0>
 636:	8d 32       	cpi	r24, 0x2D	; 45
 638:	39 f0       	breq	.+14     	; 0x648 <vfprintf+0xaa>
 63a:	80 33       	cpi	r24, 0x30	; 48
 63c:	39 f4       	brne	.+14     	; 0x64c <vfprintf+0xae>
 63e:	21 60       	ori	r18, 0x01	; 1
 640:	26 c0       	rjmp	.+76     	; 0x68e <vfprintf+0xf0>
 642:	22 60       	ori	r18, 0x02	; 2
 644:	24 60       	ori	r18, 0x04	; 4
 646:	23 c0       	rjmp	.+70     	; 0x68e <vfprintf+0xf0>
 648:	28 60       	ori	r18, 0x08	; 8
 64a:	21 c0       	rjmp	.+66     	; 0x68e <vfprintf+0xf0>
 64c:	27 fd       	sbrc	r18, 7
 64e:	27 c0       	rjmp	.+78     	; 0x69e <vfprintf+0x100>
 650:	30 ed       	ldi	r19, 0xD0	; 208
 652:	38 0f       	add	r19, r24
 654:	3a 30       	cpi	r19, 0x0A	; 10
 656:	78 f4       	brcc	.+30     	; 0x676 <vfprintf+0xd8>
 658:	26 ff       	sbrs	r18, 6
 65a:	06 c0       	rjmp	.+12     	; 0x668 <vfprintf+0xca>
 65c:	fa e0       	ldi	r31, 0x0A	; 10
 65e:	5f 9e       	mul	r5, r31
 660:	30 0d       	add	r19, r0
 662:	11 24       	eor	r1, r1
 664:	53 2e       	mov	r5, r19
 666:	13 c0       	rjmp	.+38     	; 0x68e <vfprintf+0xf0>
 668:	8a e0       	ldi	r24, 0x0A	; 10
 66a:	38 9e       	mul	r3, r24
 66c:	30 0d       	add	r19, r0
 66e:	11 24       	eor	r1, r1
 670:	33 2e       	mov	r3, r19
 672:	20 62       	ori	r18, 0x20	; 32
 674:	0c c0       	rjmp	.+24     	; 0x68e <vfprintf+0xf0>
 676:	8e 32       	cpi	r24, 0x2E	; 46
 678:	21 f4       	brne	.+8      	; 0x682 <vfprintf+0xe4>
 67a:	26 fd       	sbrc	r18, 6
 67c:	5f c1       	rjmp	.+702    	; 0x93c <vfprintf+0x39e>
 67e:	20 64       	ori	r18, 0x40	; 64
 680:	06 c0       	rjmp	.+12     	; 0x68e <vfprintf+0xf0>
 682:	8c 36       	cpi	r24, 0x6C	; 108
 684:	11 f4       	brne	.+4      	; 0x68a <vfprintf+0xec>
 686:	20 68       	ori	r18, 0x80	; 128
 688:	02 c0       	rjmp	.+4      	; 0x68e <vfprintf+0xf0>
 68a:	88 36       	cpi	r24, 0x68	; 104
 68c:	41 f4       	brne	.+16     	; 0x69e <vfprintf+0x100>
 68e:	f6 01       	movw	r30, r12
 690:	93 fd       	sbrc	r25, 3
 692:	85 91       	lpm	r24, Z+
 694:	93 ff       	sbrs	r25, 3
 696:	81 91       	ld	r24, Z+
 698:	6f 01       	movw	r12, r30
 69a:	81 11       	cpse	r24, r1
 69c:	c1 cf       	rjmp	.-126    	; 0x620 <vfprintf+0x82>
 69e:	98 2f       	mov	r25, r24
 6a0:	9f 7d       	andi	r25, 0xDF	; 223
 6a2:	95 54       	subi	r25, 0x45	; 69
 6a4:	93 30       	cpi	r25, 0x03	; 3
 6a6:	28 f4       	brcc	.+10     	; 0x6b2 <vfprintf+0x114>
 6a8:	0c 5f       	subi	r16, 0xFC	; 252
 6aa:	1f 4f       	sbci	r17, 0xFF	; 255
 6ac:	ff e3       	ldi	r31, 0x3F	; 63
 6ae:	f9 83       	std	Y+1, r31	; 0x01
 6b0:	0d c0       	rjmp	.+26     	; 0x6cc <vfprintf+0x12e>
 6b2:	83 36       	cpi	r24, 0x63	; 99
 6b4:	31 f0       	breq	.+12     	; 0x6c2 <vfprintf+0x124>
 6b6:	83 37       	cpi	r24, 0x73	; 115
 6b8:	71 f0       	breq	.+28     	; 0x6d6 <vfprintf+0x138>
 6ba:	83 35       	cpi	r24, 0x53	; 83
 6bc:	09 f0       	breq	.+2      	; 0x6c0 <vfprintf+0x122>
 6be:	57 c0       	rjmp	.+174    	; 0x76e <vfprintf+0x1d0>
 6c0:	21 c0       	rjmp	.+66     	; 0x704 <vfprintf+0x166>
 6c2:	f8 01       	movw	r30, r16
 6c4:	80 81       	ld	r24, Z
 6c6:	89 83       	std	Y+1, r24	; 0x01
 6c8:	0e 5f       	subi	r16, 0xFE	; 254
 6ca:	1f 4f       	sbci	r17, 0xFF	; 255
 6cc:	44 24       	eor	r4, r4
 6ce:	43 94       	inc	r4
 6d0:	51 2c       	mov	r5, r1
 6d2:	54 01       	movw	r10, r8
 6d4:	14 c0       	rjmp	.+40     	; 0x6fe <vfprintf+0x160>
 6d6:	38 01       	movw	r6, r16
 6d8:	f2 e0       	ldi	r31, 0x02	; 2
 6da:	6f 0e       	add	r6, r31
 6dc:	71 1c       	adc	r7, r1
 6de:	f8 01       	movw	r30, r16
 6e0:	a0 80       	ld	r10, Z
 6e2:	b1 80       	ldd	r11, Z+1	; 0x01
 6e4:	26 ff       	sbrs	r18, 6
 6e6:	03 c0       	rjmp	.+6      	; 0x6ee <vfprintf+0x150>
 6e8:	65 2d       	mov	r22, r5
 6ea:	70 e0       	ldi	r23, 0x00	; 0
 6ec:	02 c0       	rjmp	.+4      	; 0x6f2 <vfprintf+0x154>
 6ee:	6f ef       	ldi	r22, 0xFF	; 255
 6f0:	7f ef       	ldi	r23, 0xFF	; 255
 6f2:	c5 01       	movw	r24, r10
 6f4:	2c 87       	std	Y+12, r18	; 0x0c
 6f6:	4c d1       	rcall	.+664    	; 0x990 <strnlen>
 6f8:	2c 01       	movw	r4, r24
 6fa:	83 01       	movw	r16, r6
 6fc:	2c 85       	ldd	r18, Y+12	; 0x0c
 6fe:	2f 77       	andi	r18, 0x7F	; 127
 700:	22 2e       	mov	r2, r18
 702:	16 c0       	rjmp	.+44     	; 0x730 <vfprintf+0x192>
 704:	38 01       	movw	r6, r16
 706:	f2 e0       	ldi	r31, 0x02	; 2
 708:	6f 0e       	add	r6, r31
 70a:	71 1c       	adc	r7, r1
 70c:	f8 01       	movw	r30, r16
 70e:	a0 80       	ld	r10, Z
 710:	b1 80       	ldd	r11, Z+1	; 0x01
 712:	26 ff       	sbrs	r18, 6
 714:	03 c0       	rjmp	.+6      	; 0x71c <vfprintf+0x17e>
 716:	65 2d       	mov	r22, r5
 718:	70 e0       	ldi	r23, 0x00	; 0
 71a:	02 c0       	rjmp	.+4      	; 0x720 <vfprintf+0x182>
 71c:	6f ef       	ldi	r22, 0xFF	; 255
 71e:	7f ef       	ldi	r23, 0xFF	; 255
 720:	c5 01       	movw	r24, r10
 722:	2c 87       	std	Y+12, r18	; 0x0c
 724:	2a d1       	rcall	.+596    	; 0x97a <strnlen_P>
 726:	2c 01       	movw	r4, r24
 728:	2c 85       	ldd	r18, Y+12	; 0x0c
 72a:	20 68       	ori	r18, 0x80	; 128
 72c:	22 2e       	mov	r2, r18
 72e:	83 01       	movw	r16, r6
 730:	23 fc       	sbrc	r2, 3
 732:	19 c0       	rjmp	.+50     	; 0x766 <vfprintf+0x1c8>
 734:	83 2d       	mov	r24, r3
 736:	90 e0       	ldi	r25, 0x00	; 0
 738:	48 16       	cp	r4, r24
 73a:	59 06       	cpc	r5, r25
 73c:	a0 f4       	brcc	.+40     	; 0x766 <vfprintf+0x1c8>
 73e:	b7 01       	movw	r22, r14
 740:	80 e2       	ldi	r24, 0x20	; 32
 742:	90 e0       	ldi	r25, 0x00	; 0
 744:	30 d1       	rcall	.+608    	; 0x9a6 <fputc>
 746:	3a 94       	dec	r3
 748:	f5 cf       	rjmp	.-22     	; 0x734 <vfprintf+0x196>
 74a:	f5 01       	movw	r30, r10
 74c:	27 fc       	sbrc	r2, 7
 74e:	85 91       	lpm	r24, Z+
 750:	27 fe       	sbrs	r2, 7
 752:	81 91       	ld	r24, Z+
 754:	5f 01       	movw	r10, r30
 756:	b7 01       	movw	r22, r14
 758:	90 e0       	ldi	r25, 0x00	; 0
 75a:	25 d1       	rcall	.+586    	; 0x9a6 <fputc>
 75c:	31 10       	cpse	r3, r1
 75e:	3a 94       	dec	r3
 760:	f1 e0       	ldi	r31, 0x01	; 1
 762:	4f 1a       	sub	r4, r31
 764:	51 08       	sbc	r5, r1
 766:	41 14       	cp	r4, r1
 768:	51 04       	cpc	r5, r1
 76a:	79 f7       	brne	.-34     	; 0x74a <vfprintf+0x1ac>
 76c:	de c0       	rjmp	.+444    	; 0x92a <vfprintf+0x38c>
 76e:	84 36       	cpi	r24, 0x64	; 100
 770:	11 f0       	breq	.+4      	; 0x776 <vfprintf+0x1d8>
 772:	89 36       	cpi	r24, 0x69	; 105
 774:	31 f5       	brne	.+76     	; 0x7c2 <vfprintf+0x224>
 776:	f8 01       	movw	r30, r16
 778:	27 ff       	sbrs	r18, 7
 77a:	07 c0       	rjmp	.+14     	; 0x78a <vfprintf+0x1ec>
 77c:	60 81       	ld	r22, Z
 77e:	71 81       	ldd	r23, Z+1	; 0x01
 780:	82 81       	ldd	r24, Z+2	; 0x02
 782:	93 81       	ldd	r25, Z+3	; 0x03
 784:	0c 5f       	subi	r16, 0xFC	; 252
 786:	1f 4f       	sbci	r17, 0xFF	; 255
 788:	08 c0       	rjmp	.+16     	; 0x79a <vfprintf+0x1fc>
 78a:	60 81       	ld	r22, Z
 78c:	71 81       	ldd	r23, Z+1	; 0x01
 78e:	07 2e       	mov	r0, r23
 790:	00 0c       	add	r0, r0
 792:	88 0b       	sbc	r24, r24
 794:	99 0b       	sbc	r25, r25
 796:	0e 5f       	subi	r16, 0xFE	; 254
 798:	1f 4f       	sbci	r17, 0xFF	; 255
 79a:	2f 76       	andi	r18, 0x6F	; 111
 79c:	72 2e       	mov	r7, r18
 79e:	97 ff       	sbrs	r25, 7
 7a0:	09 c0       	rjmp	.+18     	; 0x7b4 <vfprintf+0x216>
 7a2:	90 95       	com	r25
 7a4:	80 95       	com	r24
 7a6:	70 95       	com	r23
 7a8:	61 95       	neg	r22
 7aa:	7f 4f       	sbci	r23, 0xFF	; 255
 7ac:	8f 4f       	sbci	r24, 0xFF	; 255
 7ae:	9f 4f       	sbci	r25, 0xFF	; 255
 7b0:	20 68       	ori	r18, 0x80	; 128
 7b2:	72 2e       	mov	r7, r18
 7b4:	2a e0       	ldi	r18, 0x0A	; 10
 7b6:	30 e0       	ldi	r19, 0x00	; 0
 7b8:	a4 01       	movw	r20, r8
 7ba:	2d d1       	rcall	.+602    	; 0xa16 <__ultoa_invert>
 7bc:	a8 2e       	mov	r10, r24
 7be:	a8 18       	sub	r10, r8
 7c0:	43 c0       	rjmp	.+134    	; 0x848 <vfprintf+0x2aa>
 7c2:	85 37       	cpi	r24, 0x75	; 117
 7c4:	29 f4       	brne	.+10     	; 0x7d0 <vfprintf+0x232>
 7c6:	2f 7e       	andi	r18, 0xEF	; 239
 7c8:	b2 2e       	mov	r11, r18
 7ca:	2a e0       	ldi	r18, 0x0A	; 10
 7cc:	30 e0       	ldi	r19, 0x00	; 0
 7ce:	25 c0       	rjmp	.+74     	; 0x81a <vfprintf+0x27c>
 7d0:	f2 2f       	mov	r31, r18
 7d2:	f9 7f       	andi	r31, 0xF9	; 249
 7d4:	bf 2e       	mov	r11, r31
 7d6:	8f 36       	cpi	r24, 0x6F	; 111
 7d8:	c1 f0       	breq	.+48     	; 0x80a <vfprintf+0x26c>
 7da:	18 f4       	brcc	.+6      	; 0x7e2 <vfprintf+0x244>
 7dc:	88 35       	cpi	r24, 0x58	; 88
 7de:	79 f0       	breq	.+30     	; 0x7fe <vfprintf+0x260>
 7e0:	ad c0       	rjmp	.+346    	; 0x93c <vfprintf+0x39e>
 7e2:	80 37       	cpi	r24, 0x70	; 112
 7e4:	19 f0       	breq	.+6      	; 0x7ec <vfprintf+0x24e>
 7e6:	88 37       	cpi	r24, 0x78	; 120
 7e8:	21 f0       	breq	.+8      	; 0x7f2 <vfprintf+0x254>
 7ea:	a8 c0       	rjmp	.+336    	; 0x93c <vfprintf+0x39e>
 7ec:	2f 2f       	mov	r18, r31
 7ee:	20 61       	ori	r18, 0x10	; 16
 7f0:	b2 2e       	mov	r11, r18
 7f2:	b4 fe       	sbrs	r11, 4
 7f4:	0d c0       	rjmp	.+26     	; 0x810 <vfprintf+0x272>
 7f6:	8b 2d       	mov	r24, r11
 7f8:	84 60       	ori	r24, 0x04	; 4
 7fa:	b8 2e       	mov	r11, r24
 7fc:	09 c0       	rjmp	.+18     	; 0x810 <vfprintf+0x272>
 7fe:	24 ff       	sbrs	r18, 4
 800:	0a c0       	rjmp	.+20     	; 0x816 <vfprintf+0x278>
 802:	9f 2f       	mov	r25, r31
 804:	96 60       	ori	r25, 0x06	; 6
 806:	b9 2e       	mov	r11, r25
 808:	06 c0       	rjmp	.+12     	; 0x816 <vfprintf+0x278>
 80a:	28 e0       	ldi	r18, 0x08	; 8
 80c:	30 e0       	ldi	r19, 0x00	; 0
 80e:	05 c0       	rjmp	.+10     	; 0x81a <vfprintf+0x27c>
 810:	20 e1       	ldi	r18, 0x10	; 16
 812:	30 e0       	ldi	r19, 0x00	; 0
 814:	02 c0       	rjmp	.+4      	; 0x81a <vfprintf+0x27c>
 816:	20 e1       	ldi	r18, 0x10	; 16
 818:	32 e0       	ldi	r19, 0x02	; 2
 81a:	f8 01       	movw	r30, r16
 81c:	b7 fe       	sbrs	r11, 7
 81e:	07 c0       	rjmp	.+14     	; 0x82e <vfprintf+0x290>
 820:	60 81       	ld	r22, Z
 822:	71 81       	ldd	r23, Z+1	; 0x01
 824:	82 81       	ldd	r24, Z+2	; 0x02
 826:	93 81       	ldd	r25, Z+3	; 0x03
 828:	0c 5f       	subi	r16, 0xFC	; 252
 82a:	1f 4f       	sbci	r17, 0xFF	; 255
 82c:	06 c0       	rjmp	.+12     	; 0x83a <vfprintf+0x29c>
 82e:	60 81       	ld	r22, Z
 830:	71 81       	ldd	r23, Z+1	; 0x01
 832:	80 e0       	ldi	r24, 0x00	; 0
 834:	90 e0       	ldi	r25, 0x00	; 0
 836:	0e 5f       	subi	r16, 0xFE	; 254
 838:	1f 4f       	sbci	r17, 0xFF	; 255
 83a:	a4 01       	movw	r20, r8
 83c:	ec d0       	rcall	.+472    	; 0xa16 <__ultoa_invert>
 83e:	a8 2e       	mov	r10, r24
 840:	a8 18       	sub	r10, r8
 842:	fb 2d       	mov	r31, r11
 844:	ff 77       	andi	r31, 0x7F	; 127
 846:	7f 2e       	mov	r7, r31
 848:	76 fe       	sbrs	r7, 6
 84a:	0b c0       	rjmp	.+22     	; 0x862 <vfprintf+0x2c4>
 84c:	37 2d       	mov	r19, r7
 84e:	3e 7f       	andi	r19, 0xFE	; 254
 850:	a5 14       	cp	r10, r5
 852:	50 f4       	brcc	.+20     	; 0x868 <vfprintf+0x2ca>
 854:	74 fe       	sbrs	r7, 4
 856:	0a c0       	rjmp	.+20     	; 0x86c <vfprintf+0x2ce>
 858:	72 fc       	sbrc	r7, 2
 85a:	08 c0       	rjmp	.+16     	; 0x86c <vfprintf+0x2ce>
 85c:	37 2d       	mov	r19, r7
 85e:	3e 7e       	andi	r19, 0xEE	; 238
 860:	05 c0       	rjmp	.+10     	; 0x86c <vfprintf+0x2ce>
 862:	ba 2c       	mov	r11, r10
 864:	37 2d       	mov	r19, r7
 866:	03 c0       	rjmp	.+6      	; 0x86e <vfprintf+0x2d0>
 868:	ba 2c       	mov	r11, r10
 86a:	01 c0       	rjmp	.+2      	; 0x86e <vfprintf+0x2d0>
 86c:	b5 2c       	mov	r11, r5
 86e:	34 ff       	sbrs	r19, 4
 870:	0d c0       	rjmp	.+26     	; 0x88c <vfprintf+0x2ee>
 872:	fe 01       	movw	r30, r28
 874:	ea 0d       	add	r30, r10
 876:	f1 1d       	adc	r31, r1
 878:	80 81       	ld	r24, Z
 87a:	80 33       	cpi	r24, 0x30	; 48
 87c:	11 f4       	brne	.+4      	; 0x882 <vfprintf+0x2e4>
 87e:	39 7e       	andi	r19, 0xE9	; 233
 880:	09 c0       	rjmp	.+18     	; 0x894 <vfprintf+0x2f6>
 882:	32 ff       	sbrs	r19, 2
 884:	06 c0       	rjmp	.+12     	; 0x892 <vfprintf+0x2f4>
 886:	b3 94       	inc	r11
 888:	b3 94       	inc	r11
 88a:	04 c0       	rjmp	.+8      	; 0x894 <vfprintf+0x2f6>
 88c:	83 2f       	mov	r24, r19
 88e:	86 78       	andi	r24, 0x86	; 134
 890:	09 f0       	breq	.+2      	; 0x894 <vfprintf+0x2f6>
 892:	b3 94       	inc	r11
 894:	33 fd       	sbrc	r19, 3
 896:	12 c0       	rjmp	.+36     	; 0x8bc <vfprintf+0x31e>
 898:	30 ff       	sbrs	r19, 0
 89a:	06 c0       	rjmp	.+12     	; 0x8a8 <vfprintf+0x30a>
 89c:	5a 2c       	mov	r5, r10
 89e:	b3 14       	cp	r11, r3
 8a0:	18 f4       	brcc	.+6      	; 0x8a8 <vfprintf+0x30a>
 8a2:	53 0c       	add	r5, r3
 8a4:	5b 18       	sub	r5, r11
 8a6:	b3 2c       	mov	r11, r3
 8a8:	b3 14       	cp	r11, r3
 8aa:	60 f4       	brcc	.+24     	; 0x8c4 <vfprintf+0x326>
 8ac:	b7 01       	movw	r22, r14
 8ae:	80 e2       	ldi	r24, 0x20	; 32
 8b0:	90 e0       	ldi	r25, 0x00	; 0
 8b2:	3c 87       	std	Y+12, r19	; 0x0c
 8b4:	78 d0       	rcall	.+240    	; 0x9a6 <fputc>
 8b6:	b3 94       	inc	r11
 8b8:	3c 85       	ldd	r19, Y+12	; 0x0c
 8ba:	f6 cf       	rjmp	.-20     	; 0x8a8 <vfprintf+0x30a>
 8bc:	b3 14       	cp	r11, r3
 8be:	10 f4       	brcc	.+4      	; 0x8c4 <vfprintf+0x326>
 8c0:	3b 18       	sub	r3, r11
 8c2:	01 c0       	rjmp	.+2      	; 0x8c6 <vfprintf+0x328>
 8c4:	31 2c       	mov	r3, r1
 8c6:	34 ff       	sbrs	r19, 4
 8c8:	11 c0       	rjmp	.+34     	; 0x8ec <vfprintf+0x34e>
 8ca:	b7 01       	movw	r22, r14
 8cc:	80 e3       	ldi	r24, 0x30	; 48
 8ce:	90 e0       	ldi	r25, 0x00	; 0
 8d0:	3c 87       	std	Y+12, r19	; 0x0c
 8d2:	69 d0       	rcall	.+210    	; 0x9a6 <fputc>
 8d4:	3c 85       	ldd	r19, Y+12	; 0x0c
 8d6:	32 ff       	sbrs	r19, 2
 8d8:	16 c0       	rjmp	.+44     	; 0x906 <vfprintf+0x368>
 8da:	31 fd       	sbrc	r19, 1
 8dc:	03 c0       	rjmp	.+6      	; 0x8e4 <vfprintf+0x346>
 8de:	88 e7       	ldi	r24, 0x78	; 120
 8e0:	90 e0       	ldi	r25, 0x00	; 0
 8e2:	02 c0       	rjmp	.+4      	; 0x8e8 <vfprintf+0x34a>
 8e4:	88 e5       	ldi	r24, 0x58	; 88
 8e6:	90 e0       	ldi	r25, 0x00	; 0
 8e8:	b7 01       	movw	r22, r14
 8ea:	0c c0       	rjmp	.+24     	; 0x904 <vfprintf+0x366>
 8ec:	83 2f       	mov	r24, r19
 8ee:	86 78       	andi	r24, 0x86	; 134
 8f0:	51 f0       	breq	.+20     	; 0x906 <vfprintf+0x368>
 8f2:	31 ff       	sbrs	r19, 1
 8f4:	02 c0       	rjmp	.+4      	; 0x8fa <vfprintf+0x35c>
 8f6:	8b e2       	ldi	r24, 0x2B	; 43
 8f8:	01 c0       	rjmp	.+2      	; 0x8fc <vfprintf+0x35e>
 8fa:	80 e2       	ldi	r24, 0x20	; 32
 8fc:	37 fd       	sbrc	r19, 7
 8fe:	8d e2       	ldi	r24, 0x2D	; 45
 900:	b7 01       	movw	r22, r14
 902:	90 e0       	ldi	r25, 0x00	; 0
 904:	50 d0       	rcall	.+160    	; 0x9a6 <fputc>
 906:	a5 14       	cp	r10, r5
 908:	30 f4       	brcc	.+12     	; 0x916 <vfprintf+0x378>
 90a:	b7 01       	movw	r22, r14
 90c:	80 e3       	ldi	r24, 0x30	; 48
 90e:	90 e0       	ldi	r25, 0x00	; 0
 910:	4a d0       	rcall	.+148    	; 0x9a6 <fputc>
 912:	5a 94       	dec	r5
 914:	f8 cf       	rjmp	.-16     	; 0x906 <vfprintf+0x368>
 916:	aa 94       	dec	r10
 918:	f4 01       	movw	r30, r8
 91a:	ea 0d       	add	r30, r10
 91c:	f1 1d       	adc	r31, r1
 91e:	80 81       	ld	r24, Z
 920:	b7 01       	movw	r22, r14
 922:	90 e0       	ldi	r25, 0x00	; 0
 924:	40 d0       	rcall	.+128    	; 0x9a6 <fputc>
 926:	a1 10       	cpse	r10, r1
 928:	f6 cf       	rjmp	.-20     	; 0x916 <vfprintf+0x378>
 92a:	33 20       	and	r3, r3
 92c:	09 f4       	brne	.+2      	; 0x930 <vfprintf+0x392>
 92e:	5d ce       	rjmp	.-838    	; 0x5ea <vfprintf+0x4c>
 930:	b7 01       	movw	r22, r14
 932:	80 e2       	ldi	r24, 0x20	; 32
 934:	90 e0       	ldi	r25, 0x00	; 0
 936:	37 d0       	rcall	.+110    	; 0x9a6 <fputc>
 938:	3a 94       	dec	r3
 93a:	f7 cf       	rjmp	.-18     	; 0x92a <vfprintf+0x38c>
 93c:	f7 01       	movw	r30, r14
 93e:	86 81       	ldd	r24, Z+6	; 0x06
 940:	97 81       	ldd	r25, Z+7	; 0x07
 942:	02 c0       	rjmp	.+4      	; 0x948 <vfprintf+0x3aa>
 944:	8f ef       	ldi	r24, 0xFF	; 255
 946:	9f ef       	ldi	r25, 0xFF	; 255
 948:	2c 96       	adiw	r28, 0x0c	; 12
 94a:	0f b6       	in	r0, 0x3f	; 63
 94c:	f8 94       	cli
 94e:	de bf       	out	0x3e, r29	; 62
 950:	0f be       	out	0x3f, r0	; 63
 952:	cd bf       	out	0x3d, r28	; 61
 954:	df 91       	pop	r29
 956:	cf 91       	pop	r28
 958:	1f 91       	pop	r17
 95a:	0f 91       	pop	r16
 95c:	ff 90       	pop	r15
 95e:	ef 90       	pop	r14
 960:	df 90       	pop	r13
 962:	cf 90       	pop	r12
 964:	bf 90       	pop	r11
 966:	af 90       	pop	r10
 968:	9f 90       	pop	r9
 96a:	8f 90       	pop	r8
 96c:	7f 90       	pop	r7
 96e:	6f 90       	pop	r6
 970:	5f 90       	pop	r5
 972:	4f 90       	pop	r4
 974:	3f 90       	pop	r3
 976:	2f 90       	pop	r2
 978:	08 95       	ret

0000097a <strnlen_P>:
 97a:	fc 01       	movw	r30, r24
 97c:	05 90       	lpm	r0, Z+
 97e:	61 50       	subi	r22, 0x01	; 1
 980:	70 40       	sbci	r23, 0x00	; 0
 982:	01 10       	cpse	r0, r1
 984:	d8 f7       	brcc	.-10     	; 0x97c <strnlen_P+0x2>
 986:	80 95       	com	r24
 988:	90 95       	com	r25
 98a:	8e 0f       	add	r24, r30
 98c:	9f 1f       	adc	r25, r31
 98e:	08 95       	ret

00000990 <strnlen>:
 990:	fc 01       	movw	r30, r24
 992:	61 50       	subi	r22, 0x01	; 1
 994:	70 40       	sbci	r23, 0x00	; 0
 996:	01 90       	ld	r0, Z+
 998:	01 10       	cpse	r0, r1
 99a:	d8 f7       	brcc	.-10     	; 0x992 <strnlen+0x2>
 99c:	80 95       	com	r24
 99e:	90 95       	com	r25
 9a0:	8e 0f       	add	r24, r30
 9a2:	9f 1f       	adc	r25, r31
 9a4:	08 95       	ret

000009a6 <fputc>:
 9a6:	0f 93       	push	r16
 9a8:	1f 93       	push	r17
 9aa:	cf 93       	push	r28
 9ac:	df 93       	push	r29
 9ae:	fb 01       	movw	r30, r22
 9b0:	23 81       	ldd	r18, Z+3	; 0x03
 9b2:	21 fd       	sbrc	r18, 1
 9b4:	03 c0       	rjmp	.+6      	; 0x9bc <fputc+0x16>
 9b6:	8f ef       	ldi	r24, 0xFF	; 255
 9b8:	9f ef       	ldi	r25, 0xFF	; 255
 9ba:	28 c0       	rjmp	.+80     	; 0xa0c <fputc+0x66>
 9bc:	22 ff       	sbrs	r18, 2
 9be:	16 c0       	rjmp	.+44     	; 0x9ec <fputc+0x46>
 9c0:	46 81       	ldd	r20, Z+6	; 0x06
 9c2:	57 81       	ldd	r21, Z+7	; 0x07
 9c4:	24 81       	ldd	r18, Z+4	; 0x04
 9c6:	35 81       	ldd	r19, Z+5	; 0x05
 9c8:	42 17       	cp	r20, r18
 9ca:	53 07       	cpc	r21, r19
 9cc:	44 f4       	brge	.+16     	; 0x9de <fputc+0x38>
 9ce:	a0 81       	ld	r26, Z
 9d0:	b1 81       	ldd	r27, Z+1	; 0x01
 9d2:	9d 01       	movw	r18, r26
 9d4:	2f 5f       	subi	r18, 0xFF	; 255
 9d6:	3f 4f       	sbci	r19, 0xFF	; 255
 9d8:	31 83       	std	Z+1, r19	; 0x01
 9da:	20 83       	st	Z, r18
 9dc:	8c 93       	st	X, r24
 9de:	26 81       	ldd	r18, Z+6	; 0x06
 9e0:	37 81       	ldd	r19, Z+7	; 0x07
 9e2:	2f 5f       	subi	r18, 0xFF	; 255
 9e4:	3f 4f       	sbci	r19, 0xFF	; 255
 9e6:	37 83       	std	Z+7, r19	; 0x07
 9e8:	26 83       	std	Z+6, r18	; 0x06
 9ea:	10 c0       	rjmp	.+32     	; 0xa0c <fputc+0x66>
 9ec:	eb 01       	movw	r28, r22
 9ee:	09 2f       	mov	r16, r25
 9f0:	18 2f       	mov	r17, r24
 9f2:	00 84       	ldd	r0, Z+8	; 0x08
 9f4:	f1 85       	ldd	r31, Z+9	; 0x09
 9f6:	e0 2d       	mov	r30, r0
 9f8:	09 95       	icall
 9fa:	89 2b       	or	r24, r25
 9fc:	e1 f6       	brne	.-72     	; 0x9b6 <fputc+0x10>
 9fe:	8e 81       	ldd	r24, Y+6	; 0x06
 a00:	9f 81       	ldd	r25, Y+7	; 0x07
 a02:	01 96       	adiw	r24, 0x01	; 1
 a04:	9f 83       	std	Y+7, r25	; 0x07
 a06:	8e 83       	std	Y+6, r24	; 0x06
 a08:	81 2f       	mov	r24, r17
 a0a:	90 2f       	mov	r25, r16
 a0c:	df 91       	pop	r29
 a0e:	cf 91       	pop	r28
 a10:	1f 91       	pop	r17
 a12:	0f 91       	pop	r16
 a14:	08 95       	ret

00000a16 <__ultoa_invert>:
 a16:	fa 01       	movw	r30, r20
 a18:	aa 27       	eor	r26, r26
 a1a:	28 30       	cpi	r18, 0x08	; 8
 a1c:	51 f1       	breq	.+84     	; 0xa72 <__ultoa_invert+0x5c>
 a1e:	20 31       	cpi	r18, 0x10	; 16
 a20:	81 f1       	breq	.+96     	; 0xa82 <__ultoa_invert+0x6c>
 a22:	e8 94       	clt
 a24:	6f 93       	push	r22
 a26:	6e 7f       	andi	r22, 0xFE	; 254
 a28:	6e 5f       	subi	r22, 0xFE	; 254
 a2a:	7f 4f       	sbci	r23, 0xFF	; 255
 a2c:	8f 4f       	sbci	r24, 0xFF	; 255
 a2e:	9f 4f       	sbci	r25, 0xFF	; 255
 a30:	af 4f       	sbci	r26, 0xFF	; 255
 a32:	b1 e0       	ldi	r27, 0x01	; 1
 a34:	3e d0       	rcall	.+124    	; 0xab2 <__ultoa_invert+0x9c>
 a36:	b4 e0       	ldi	r27, 0x04	; 4
 a38:	3c d0       	rcall	.+120    	; 0xab2 <__ultoa_invert+0x9c>
 a3a:	67 0f       	add	r22, r23
 a3c:	78 1f       	adc	r23, r24
 a3e:	89 1f       	adc	r24, r25
 a40:	9a 1f       	adc	r25, r26
 a42:	a1 1d       	adc	r26, r1
 a44:	68 0f       	add	r22, r24
 a46:	79 1f       	adc	r23, r25
 a48:	8a 1f       	adc	r24, r26
 a4a:	91 1d       	adc	r25, r1
 a4c:	a1 1d       	adc	r26, r1
 a4e:	6a 0f       	add	r22, r26
 a50:	71 1d       	adc	r23, r1
 a52:	81 1d       	adc	r24, r1
 a54:	91 1d       	adc	r25, r1
 a56:	a1 1d       	adc	r26, r1
 a58:	20 d0       	rcall	.+64     	; 0xa9a <__ultoa_invert+0x84>
 a5a:	09 f4       	brne	.+2      	; 0xa5e <__ultoa_invert+0x48>
 a5c:	68 94       	set
 a5e:	3f 91       	pop	r19
 a60:	2a e0       	ldi	r18, 0x0A	; 10
 a62:	26 9f       	mul	r18, r22
 a64:	11 24       	eor	r1, r1
 a66:	30 19       	sub	r19, r0
 a68:	30 5d       	subi	r19, 0xD0	; 208
 a6a:	31 93       	st	Z+, r19
 a6c:	de f6       	brtc	.-74     	; 0xa24 <__ultoa_invert+0xe>
 a6e:	cf 01       	movw	r24, r30
 a70:	08 95       	ret
 a72:	46 2f       	mov	r20, r22
 a74:	47 70       	andi	r20, 0x07	; 7
 a76:	40 5d       	subi	r20, 0xD0	; 208
 a78:	41 93       	st	Z+, r20
 a7a:	b3 e0       	ldi	r27, 0x03	; 3
 a7c:	0f d0       	rcall	.+30     	; 0xa9c <__ultoa_invert+0x86>
 a7e:	c9 f7       	brne	.-14     	; 0xa72 <__ultoa_invert+0x5c>
 a80:	f6 cf       	rjmp	.-20     	; 0xa6e <__ultoa_invert+0x58>
 a82:	46 2f       	mov	r20, r22
 a84:	4f 70       	andi	r20, 0x0F	; 15
 a86:	40 5d       	subi	r20, 0xD0	; 208
 a88:	4a 33       	cpi	r20, 0x3A	; 58
 a8a:	18 f0       	brcs	.+6      	; 0xa92 <__ultoa_invert+0x7c>
 a8c:	49 5d       	subi	r20, 0xD9	; 217
 a8e:	31 fd       	sbrc	r19, 1
 a90:	40 52       	subi	r20, 0x20	; 32
 a92:	41 93       	st	Z+, r20
 a94:	02 d0       	rcall	.+4      	; 0xa9a <__ultoa_invert+0x84>
 a96:	a9 f7       	brne	.-22     	; 0xa82 <__ultoa_invert+0x6c>
 a98:	ea cf       	rjmp	.-44     	; 0xa6e <__ultoa_invert+0x58>
 a9a:	b4 e0       	ldi	r27, 0x04	; 4
 a9c:	a6 95       	lsr	r26
 a9e:	97 95       	ror	r25
 aa0:	87 95       	ror	r24
 aa2:	77 95       	ror	r23
 aa4:	67 95       	ror	r22
 aa6:	ba 95       	dec	r27
 aa8:	c9 f7       	brne	.-14     	; 0xa9c <__ultoa_invert+0x86>
 aaa:	00 97       	sbiw	r24, 0x00	; 0
 aac:	61 05       	cpc	r22, r1
 aae:	71 05       	cpc	r23, r1
 ab0:	08 95       	ret
 ab2:	9b 01       	movw	r18, r22
 ab4:	ac 01       	movw	r20, r24
 ab6:	0a 2e       	mov	r0, r26
 ab8:	06 94       	lsr	r0
 aba:	57 95       	ror	r21
 abc:	47 95       	ror	r20
 abe:	37 95       	ror	r19
 ac0:	27 95       	ror	r18
 ac2:	ba 95       	dec	r27
 ac4:	c9 f7       	brne	.-14     	; 0xab8 <__ultoa_invert+0xa2>
 ac6:	62 0f       	add	r22, r18
 ac8:	73 1f       	adc	r23, r19
 aca:	84 1f       	adc	r24, r20
 acc:	95 1f       	adc	r25, r21
 ace:	a0 1d       	adc	r26, r0
 ad0:	08 95       	ret

00000ad2 <_exit>:
 ad2:	f8 94       	cli

00000ad4 <__stop_program>:
 ad4:	ff cf       	rjmp	.-2      	; 0xad4 <__stop_program>
